; Function Attrs: nounwind uwtable
define nonnull ptr @l_Lean_FuzzyMatching_charType___boxed(ptr noundef %0) local_unnamed_addr #0 {
  %2 = ptrtoint ptr %0 to i64
  %3 = lshr i64 %2, 1
  %4 = trunc i64 %3 to i32
  %5 = and i64 %2, 1
  %.not = icmp eq i64 %5, 0
  br i1 %.not, label %6, label %lean_dec.exit

6:                                                ; preds = %1
  %7 = load i32, ptr %0, align 4, !tbaa !5
  %8 = icmp sgt i32 %7, 1
  br i1 %8, label %9, label %11, !prof !10

9:                                                ; preds = %6
  %10 = add nsw i32 %7, -1
  store i32 %10, ptr %0, align 4, !tbaa !5
  br label %lean_dec.exit

11:                                               ; preds = %6
  %.not.i = icmp eq i32 %7, 0
  br i1 %.not.i, label %lean_dec.exit, label %12

12:                                               ; preds = %11
  tail call void @lean_dec_ref_cold(ptr noundef nonnull %0) #7
  br label %lean_dec.exit

lean_dec.exit:                                    ; preds = %12, %11, %9, %1
  %13 = icmp ult i32 %4, 65
  br i1 %13, label %lean_dec.exit.i, label %14

14:                                               ; preds = %lean_dec.exit
  %15 = icmp ult i32 %4, 91
  %16 = add i32 %4, -97
  %or.cond.i = icmp ult i32 %16, 26
  %or.cond93.i = or i1 %15, %or.cond.i
  br i1 %or.cond93.i, label %lean_dec.exit74.i, label %lean_dec.exit.thread.i

lean_dec.exit74.i:                                ; preds = %14
  %.73.i = zext i1 %15 to i64
  br label %l_Lean_FuzzyMatching_charType.exit

lean_dec.exit.i:                                  ; preds = %lean_dec.exit
  %17 = icmp samesign ult i32 %4, 48
  br i1 %17, label %l_Lean_FuzzyMatching_charType.exit, label %lean_dec.exit.thread.i

lean_dec.exit.thread.i:                           ; preds = %lean_dec.exit.i, %14
  %18 = icmp ugt i32 %4, 57
  %.mux.i = select i1 %18, i64 2, i64 0
  br label %l_Lean_FuzzyMatching_charType.exit

l_Lean_FuzzyMatching_charType.exit:               ; preds = %lean_dec.exit74.i, %lean_dec.exit.i, %lean_dec.exit.thread.i
  %.0.i = phi i64 [ %.73.i, %lean_dec.exit74.i ], [ 2, %lean_dec.exit.i ], [ %.mux.i, %lean_dec.exit.thread.i ]
  %19 = shl nuw nsw i64 %.0.i, 1
  %20 = or disjoint i64 %19, 1
  %21 = inttoptr i64 %20 to ptr
  ret ptr %21
}